#include <math.h>
#include <stdio.h>
#include <stdlib.h>
#include <string.h>

int main()
{
int x,a,b,c,d,e;
scanf("%d",&x);
a=x/10000;
b=x%10000/1000;
c=x%1000/100;
d=x%100/10;
e=x%10;
if(x>9999)
printf("%d%d%d%d%d",e,d,c,b,a);
else
if(x>999)
printf("%d%d%d%d",e,d,c,b);
else
if(x>99)
printf("%d%d%d",e,d,c);
else
if(x>9)
printf("%d%d",e,d);
else
printf("%d",e);
return 0;
}
