; ModuleID = '16/567.c'
source_filename = "16/567.c"
target datalayout = "e-m:e-p270:32:32-p271:32:32-p272:64:64-i64:64-f80:128-n8:16:32:64-S128"
target triple = "x86_64-pc-linux-gnu"

@.str = private unnamed_addr constant [3 x i8] c"%d\00", align 1
@.str.1 = private unnamed_addr constant [11 x i8] c"%d%d%d%d%d\00", align 1
@.str.2 = private unnamed_addr constant [9 x i8] c"%d%d%d%d\00", align 1
@.str.3 = private unnamed_addr constant [7 x i8] c"%d%d%d\00", align 1
@.str.4 = private unnamed_addr constant [5 x i8] c"%d%d\00", align 1

; Function Attrs: noinline nounwind uwtable
define dso_local i32 @main() #0 {
  %1 = alloca i32, align 4
  %2 = alloca i32, align 4
  %3 = alloca i32, align 4
  %4 = alloca i32, align 4
  %5 = alloca i32, align 4
  %6 = alloca i32, align 4
  %7 = alloca i32, align 4
  store i32 0, i32* %1, align 4
  %8 = call i32 (i8*, ...) @__isoc99_scanf(i8* getelementptr inbounds ([3 x i8], [3 x i8]* @.str, i64 0, i64 0), i32* %2)
  %9 = load i32, i32* %2, align 4
  %10 = sdiv i32 %9, 10000
  store i32 %10, i32* %3, align 4
  %11 = load i32, i32* %2, align 4
  %12 = srem i32 %11, 10000
  %13 = sdiv i32 %12, 1000
  store i32 %13, i32* %4, align 4
  %14 = load i32, i32* %2, align 4
  %15 = srem i32 %14, 1000
  %16 = sdiv i32 %15, 100
  store i32 %16, i32* %5, align 4
  %17 = load i32, i32* %2, align 4
  %18 = srem i32 %17, 100
  %19 = sdiv i32 %18, 10
  store i32 %19, i32* %6, align 4
  %20 = load i32, i32* %2, align 4
  %21 = srem i32 %20, 10
  store i32 %21, i32* %7, align 4
  %22 = load i32, i32* %2, align 4
  %23 = icmp sgt i32 %22, 9999
  br i1 %23, label %24, label %31

24:                                               ; preds = %0
  %25 = load i32, i32* %7, align 4
  %26 = load i32, i32* %6, align 4
  %27 = load i32, i32* %5, align 4
  %28 = load i32, i32* %4, align 4
  %29 = load i32, i32* %3, align 4
  %30 = call i32 (i8*, ...) @printf(i8* getelementptr inbounds ([11 x i8], [11 x i8]* @.str.1, i64 0, i64 0), i32 %25, i32 %26, i32 %27, i32 %28, i32 %29)
  br label %61

31:                                               ; preds = %0
  %32 = load i32, i32* %2, align 4
  %33 = icmp sgt i32 %32, 999
  br i1 %33, label %34, label %40

34:                                               ; preds = %31
  %35 = load i32, i32* %7, align 4
  %36 = load i32, i32* %6, align 4
  %37 = load i32, i32* %5, align 4
  %38 = load i32, i32* %4, align 4
  %39 = call i32 (i8*, ...) @printf(i8* getelementptr inbounds ([9 x i8], [9 x i8]* @.str.2, i64 0, i64 0), i32 %35, i32 %36, i32 %37, i32 %38)
  br label %60

40:                                               ; preds = %31
  %41 = load i32, i32* %2, align 4
  %42 = icmp sgt i32 %41, 99
  br i1 %42, label %43, label %48

43:                                               ; preds = %40
  %44 = load i32, i32* %7, align 4
  %45 = load i32, i32* %6, align 4
  %46 = load i32, i32* %5, align 4
  %47 = call i32 (i8*, ...) @printf(i8* getelementptr inbounds ([7 x i8], [7 x i8]* @.str.3, i64 0, i64 0), i32 %44, i32 %45, i32 %46)
  br label %59

48:                                               ; preds = %40
  %49 = load i32, i32* %2, align 4
  %50 = icmp sgt i32 %49, 9
  br i1 %50, label %51, label %55

51:                                               ; preds = %48
  %52 = load i32, i32* %7, align 4
  %53 = load i32, i32* %6, align 4
  %54 = call i32 (i8*, ...) @printf(i8* getelementptr inbounds ([5 x i8], [5 x i8]* @.str.4, i64 0, i64 0), i32 %52, i32 %53)
  br label %58

55:                                               ; preds = %48
  %56 = load i32, i32* %7, align 4
  %57 = call i32 (i8*, ...) @printf(i8* getelementptr inbounds ([3 x i8], [3 x i8]* @.str, i64 0, i64 0), i32 %56)
  br label %58

58:                                               ; preds = %55, %51
  br label %59

59:                                               ; preds = %58, %43
  br label %60

60:                                               ; preds = %59, %34
  br label %61

61:                                               ; preds = %60, %24
  ret i32 0
}

declare dso_local i32 @__isoc99_scanf(i8*, ...) #1

declare dso_local i32 @printf(i8*, ...) #1


!llvm.module.flags = !{!0}
!llvm.ident = !{!1}

!0 = !{i32 1, !"wchar_size", i32 4}
!1 = !{!"clang version 10.0.0-4ubuntu1 "}
